; Function Attrs: mustprogress uwtable
define internal fastcc void @_ZN8facebook5velox6common11compression12_GLOBAL__N_123MalformedInputExceptionC2ElRKNSt7__cxx1112basic_stringIcSt11char_traitsIcESaIcEEE(ptr noundef nonnull align 8 dereferenceable(16) %this, i64 noundef %off, ptr noundef nonnull align 8 dereferenceable(32) %msg) unnamed_addr #0 align 2 personality ptr @__gxx_personality_v0 {
entry:
  %ref.tmp.i.i = alloca ptr, align 8
  %val.addr.i = alloca i64, align 8
  %ref.tmp = alloca %"class.std::__cxx11::basic_string", align 8
  %ref.tmp2 = alloca %"class.std::__cxx11::basic_string", align 8
  %ref.tmp3 = alloca %"class.std::__cxx11::basic_string", align 8
  %ref.tmp4 = alloca %"class.std::__cxx11::basic_string", align 8
  call void @_ZStplIcSt11char_traitsIcESaIcEENSt7__cxx1112basic_stringIT_T0_T1_EEPKS5_RKS8_(ptr nonnull sret(%"class.std::__cxx11::basic_string") align 8 %ref.tmp3, ptr noundef nonnull @.str.3, ptr noundef nonnull align 8 dereferenceable(32) %msg)
  %call.i4 = invoke noundef nonnull align 8 dereferenceable(32) ptr @_ZNSt7__cxx1112basic_stringIcSt11char_traitsIcESaIcEE6appendEPKc(ptr noundef nonnull align 8 dereferenceable(32) %ref.tmp3, ptr noundef nonnull @.str.4)
          to label %invoke.cont unwind label %lpad

invoke.cont:                                      ; preds = %entry
  call void @_ZNSt7__cxx1112basic_stringIcSt11char_traitsIcESaIcEEC1EOS4_(ptr noundef nonnull align 8 dereferenceable(32) %ref.tmp2, ptr noundef nonnull align 8 dereferenceable(32) %call.i4) #9
  call void @llvm.lifetime.start.p0(i64 8, ptr nonnull %val.addr.i)
  store i64 %off, ptr %val.addr.i, align 8, !noalias !21
  call void @llvm.lifetime.start.p0(i64 8, ptr nonnull %ref.tmp.i.i), !noalias !21
  call void @_ZNSt7__cxx1112basic_stringIcSt11char_traitsIcESaIcEEC1Ev(ptr noundef nonnull align 8 dereferenceable(32) %ref.tmp4) #9
  store ptr %ref.tmp4, ptr %ref.tmp.i.i, align 8, !noalias !24
  invoke void @_ZN5folly11toAppendFitIJlPNSt7__cxx1112basic_stringIcSt11char_traitsIcESaIcEEEEEENSt9enable_ifIXsr12IsSomeStringINSt14remove_pointerINS_6detail11LastElementIJDpRKT_EE4typeEE4typeEEE5valueEvE4typeESF_(ptr noundef nonnull align 8 dereferenceable(8) %val.addr.i, ptr noundef nonnull align 8 dereferenceable(8) %ref.tmp.i.i)
          to label %invoke.cont6 unwind label %lpad.i.i

lpad.i.i:                                         ; preds = %invoke.cont
  %0 = landingpad { ptr, i32 }
          cleanup
  br label %ehcleanup11

invoke.cont6:                                     ; preds = %invoke.cont
  call void @llvm.lifetime.end.p0(i64 8, ptr nonnull %ref.tmp.i.i), !noalias !21
  call void @llvm.lifetime.end.p0(i64 8, ptr nonnull %val.addr.i)
  %call.i = call noundef i64 @_ZNKSt7__cxx1112basic_stringIcSt11char_traitsIcESaIcEE4sizeEv(ptr noundef nonnull align 8 dereferenceable(32) %ref.tmp2) #9, !noalias !27
  %call1.i = call noundef i64 @_ZNKSt7__cxx1112basic_stringIcSt11char_traitsIcESaIcEE4sizeEv(ptr noundef nonnull align 8 dereferenceable(32) %ref.tmp4) #9, !noalias !27
  %add.i = add i64 %call1.i, %call.i
  %call2.i = call noundef i64 @_ZNKSt7__cxx1112basic_stringIcSt11char_traitsIcESaIcEE8capacityEv(ptr noundef nonnull align 8 dereferenceable(32) %ref.tmp2) #9, !noalias !27
  %cmp.i = icmp ugt i64 %add.i, %call2.i
  br i1 %cmp.i, label %land.lhs.true.i, label %if.end7.i

land.lhs.true.i:                                  ; preds = %invoke.cont6
  %call3.i = call noundef i64 @_ZNKSt7__cxx1112basic_stringIcSt11char_traitsIcESaIcEE8capacityEv(ptr noundef nonnull align 8 dereferenceable(32) %ref.tmp4) #9, !noalias !27
  %cmp4.not.i = icmp ugt i64 %add.i, %call3.i
  br i1 %cmp4.not.i, label %if.end7.i, label %if.then5.i

if.then5.i:                                       ; preds = %land.lhs.true.i
  %call6.i5 = invoke noundef nonnull align 8 dereferenceable(32) ptr @_ZNSt7__cxx1112basic_stringIcSt11char_traitsIcESaIcEE6insertEmRKS4_(ptr noundef nonnull align 8 dereferenceable(32) %ref.tmp4, i64 noundef 0, ptr noundef nonnull align 8 dereferenceable(32) %ref.tmp2)
          to label %invoke.cont8 unwind label %lpad7

if.end7.i:                                        ; preds = %land.lhs.true.i, %invoke.cont6
  %call8.i6 = invoke noundef nonnull align 8 dereferenceable(32) ptr @_ZNSt7__cxx1112basic_stringIcSt11char_traitsIcESaIcEE6appendERKS4_(ptr noundef nonnull align 8 dereferenceable(32) %ref.tmp2, ptr noundef nonnull align 8 dereferenceable(32) %ref.tmp4)
          to label %invoke.cont8 unwind label %lpad7

invoke.cont8:                                     ; preds = %if.then5.i, %if.end7.i
  %call8.sink.i = phi ptr [ %call6.i5, %if.then5.i ], [ %call8.i6, %if.end7.i ]
  call void @_ZNSt7__cxx1112basic_stringIcSt11char_traitsIcESaIcEEC1EOS4_(ptr noundef nonnull align 8 dereferenceable(32) %ref.tmp, ptr noundef nonnull align 8 dereferenceable(32) %call8.sink.i) #9
  invoke void @_ZNSt13runtime_errorC2ERKNSt7__cxx1112basic_stringIcSt11char_traitsIcESaIcEEE(ptr noundef nonnull align 8 dereferenceable(16) %this, ptr noundef nonnull align 8 dereferenceable(32) %ref.tmp)
          to label %invoke.cont10 unwind label %lpad9

invoke.cont10:                                    ; preds = %invoke.cont8
  store ptr getelementptr inbounds ({ [5 x ptr] }, ptr @_ZTVN8facebook5velox4dwio6common10ParseErrorE, i64 0, i32 0, i64 2), ptr %this, align 8
  call void @_ZNSt7__cxx1112basic_stringIcSt11char_traitsIcESaIcEED1Ev(ptr noundef nonnull align 8 dereferenceable(32) %ref.tmp) #9
  call void @_ZNSt7__cxx1112basic_stringIcSt11char_traitsIcESaIcEED1Ev(ptr noundef nonnull align 8 dereferenceable(32) %ref.tmp4) #9
  call void @_ZNSt7__cxx1112basic_stringIcSt11char_traitsIcESaIcEED1Ev(ptr noundef nonnull align 8 dereferenceable(32) %ref.tmp2) #9
  call void @_ZNSt7__cxx1112basic_stringIcSt11char_traitsIcESaIcEED1Ev(ptr noundef nonnull align 8 dereferenceable(32) %ref.tmp3) #9
  store ptr getelementptr inbounds ({ [5 x ptr] }, ptr @_ZTVN8facebook5velox6common11compression12_GLOBAL__N_123MalformedInputExceptionE, i64 0, i32 0, i64 2), ptr %this, align 8
  ret void

lpad:                                             ; preds = %entry
  %1 = landingpad { ptr, i32 }
          cleanup
  br label %ehcleanup12

lpad7:                                            ; preds = %if.end7.i, %if.then5.i
  %2 = landingpad { ptr, i32 }
          cleanup
  br label %ehcleanup11

lpad9:                                            ; preds = %invoke.cont8
  %3 = landingpad { ptr, i32 }
          cleanup
  call void @_ZNSt7__cxx1112basic_stringIcSt11char_traitsIcESaIcEED1Ev(ptr noundef nonnull align 8 dereferenceable(32) %ref.tmp) #9
  br label %ehcleanup11

ehcleanup11:                                      ; preds = %lpad7, %lpad9, %lpad.i.i
  %.pn.pn = phi { ptr, i32 } [ %0, %lpad.i.i ], [ %3, %lpad9 ], [ %2, %lpad7 ]
  call void @_ZNSt7__cxx1112basic_stringIcSt11char_traitsIcESaIcEED1Ev(ptr noundef nonnull align 8 dereferenceable(32) %ref.tmp4) #9
  call void @_ZNSt7__cxx1112basic_stringIcSt11char_traitsIcESaIcEED1Ev(ptr noundef nonnull align 8 dereferenceable(32) %ref.tmp2) #9
  br label %ehcleanup12

ehcleanup12:                                      ; preds = %ehcleanup11, %lpad
  %.pn.pn.pn = phi { ptr, i32 } [ %.pn.pn, %ehcleanup11 ], [ %1, %lpad ]
  call void @_ZNSt7__cxx1112basic_stringIcSt11char_traitsIcESaIcEED1Ev(ptr noundef nonnull align 8 dereferenceable(32) %ref.tmp3) #9
  resume { ptr, i32 } %.pn.pn.pn
}